target datalayout = "e-m:e-p270:32:32-p271:32:32-p272:64:64-i64:64-i128:128-f80:128-n8:16:32:64-S128"
target triple = "x86_64-pc-linux-gnu"

%struct._zend_compiler_globals = type { %struct._zend_stack, ptr, ptr, i32, ptr, ptr, ptr, ptr, i8, i8, i8, i8, i8, %struct._zend_llist, ptr, i8, i8, i8, i8, ptr, i32, i32, %struct._zend_oparray_context, %struct._zend_file_context, ptr, %struct._zend_array, ptr, i64, i8, i8, i8, ptr, ptr, %struct._zend_stack, ptr, i32, ptr, ptr, i64, i64, ptr, ptr, ptr, ptr, i32, %struct._zend_stack }
%struct._zend_llist = type { ptr, ptr, i64, i64, ptr, i8, ptr }
%struct._zend_oparray_context = type { i32, i32, i32, i32, i32, i32, i32, ptr, ptr, i8 }
%struct._zend_file_context = type { %struct._zend_declarables, ptr, i8, i8, ptr, ptr, ptr, %struct._zend_array }
%struct._zend_declarables = type { i64 }
%struct._zend_array = type { %struct._zend_refcounted_h, %union.anon.5, i32, %union.anon.7, i32, i32, i32, i32, i64, ptr }
%struct._zend_refcounted_h = type { i32, %union.anon.3 }
%union.anon.3 = type { i32 }
%union.anon.5 = type { i32 }
%union.anon.7 = type { ptr }
%struct._zend_stack = type { i32, i32, i32, ptr }
%struct.zend_type = type { ptr, i32 }
%struct._zval_struct = type { %union._zend_value, %union.anon, %union.anon.2 }
%union._zend_value = type { i64 }
%union.anon = type { i32 }
%union.anon.2 = type { i32 }
%struct._zend_class_entry = type { i8, ptr, %union.anon.4, i32, i32, i32, i32, ptr, ptr, ptr, %struct._zend_array, %struct._zend_array, %struct._zend_array, ptr, ptr, ptr, ptr, ptr, ptr, ptr, ptr, ptr, ptr, ptr, ptr, ptr, ptr, ptr, ptr, ptr, ptr, ptr, %union.anon.8, ptr, ptr, ptr, ptr, i32, i32, %union.anon.9, ptr, ptr, ptr, ptr, i32, ptr, ptr, %union.anon.10 }
%union.anon.4 = type { ptr }
%union.anon.8 = type { ptr }
%union.anon.9 = type { ptr }
%union.anon.10 = type { %struct.anon.11 }
%struct.anon.11 = type { ptr, i32, i32 }
%struct._zend_class_mutable_data = type { ptr, ptr, i32, ptr }
%struct._zend_class_constant = type { %struct._zval_struct, ptr, ptr, ptr, %struct.zend_type }

@compiler_globals = external global %struct._zend_compiler_globals, align 8

; Function Attrs: nounwind uwtable
define ptr @zend_enum_get_case(ptr noundef %0, ptr noundef %1) #0 {
  %3 = alloca ptr, align 8
  %4 = alloca ptr, align 8
  %5 = alloca ptr, align 8
  %6 = alloca ptr, align 8
  %7 = alloca ptr, align 8
  %8 = alloca ptr, align 8
  %9 = alloca ptr, align 8
  %10 = alloca ptr, align 8
  %11 = alloca ptr, align 8
  %12 = alloca ptr, align 8
  %13 = alloca ptr, align 8
  store ptr %0, ptr %11, align 8
  store ptr %1, ptr %12, align 8
  %14 = load ptr, ptr %11, align 8
  store ptr %14, ptr %9, align 8
  %15 = load ptr, ptr %9, align 8
  %16 = getelementptr inbounds %struct._zend_class_entry, ptr %15, i32 0, i32 4
  %17 = load i32, ptr %16, align 4
  %18 = and i32 %17, 16777216
  %19 = icmp ne i32 %18, 0
  br i1 %19, label %20, label %47

20:                                               ; preds = %2
  %21 = load ptr, ptr %9, align 8
  %22 = getelementptr inbounds %struct._zend_class_entry, ptr %21, i32 0, i32 13
  %23 = load ptr, ptr %22, align 8
  %24 = icmp ne ptr %23, null
  br i1 %24, label %25, label %47

25:                                               ; preds = %20
  %26 = load ptr, ptr getelementptr inbounds (%struct._zend_compiler_globals, ptr @compiler_globals, i32 0, i32 37), align 8
  %27 = load ptr, ptr %9, align 8
  %28 = getelementptr inbounds %struct._zend_class_entry, ptr %27, i32 0, i32 13
  %29 = load ptr, ptr %28, align 8
  %30 = ptrtoint ptr %29 to i64
  %31 = getelementptr inbounds i8, ptr %26, i64 %30
  %32 = load ptr, ptr %31, align 8
  store ptr %32, ptr %10, align 8
  %33 = load ptr, ptr %10, align 8
  %34 = icmp ne ptr %33, null
  br i1 %34, label %35, label %44

35:                                               ; preds = %25
  %36 = load ptr, ptr %10, align 8
  %37 = getelementptr inbounds %struct._zend_class_mutable_data, ptr %36, i32 0, i32 1
  %38 = load ptr, ptr %37, align 8
  %39 = icmp ne ptr %38, null
  br i1 %39, label %40, label %44

40:                                               ; preds = %35
  %41 = load ptr, ptr %10, align 8
  %42 = getelementptr inbounds %struct._zend_class_mutable_data, ptr %41, i32 0, i32 1
  %43 = load ptr, ptr %42, align 8
  store ptr %43, ptr %8, align 8
  br label %50

44:                                               ; preds = %35, %25
  %45 = load ptr, ptr %9, align 8
  %46 = call ptr @zend_separate_class_constants_table(ptr noundef %45) #11
  store ptr %46, ptr %8, align 8
  br label %50

47:                                               ; preds = %20, %2
  %48 = load ptr, ptr %9, align 8
  %49 = getelementptr inbounds %struct._zend_class_entry, ptr %48, i32 0, i32 12
  store ptr %49, ptr %8, align 8
  br label %50

50:                                               ; preds = %47, %44, %40
  %51 = load ptr, ptr %8, align 8
  %52 = load ptr, ptr %12, align 8
  store ptr %51, ptr %4, align 8
  store ptr %52, ptr %5, align 8
  %53 = load ptr, ptr %4, align 8
  %54 = load ptr, ptr %5, align 8
  %55 = call ptr @zend_hash_find(ptr noundef %53, ptr noundef %54) #11
  store ptr %55, ptr %6, align 8
  %56 = load ptr, ptr %6, align 8
  %57 = icmp ne ptr %56, null
  br i1 %57, label %58, label %64

58:                                               ; preds = %50
  %59 = load ptr, ptr %6, align 8
  %60 = load ptr, ptr %59, align 8
  %61 = icmp ne ptr %60, null
  call void @llvm.assume(i1 %61)
  %62 = load ptr, ptr %6, align 8
  %63 = load ptr, ptr %62, align 8
  store ptr %63, ptr %3, align 8
  br label %65

64:                                               ; preds = %50
  store ptr null, ptr %3, align 8
  br label %65

65:                                               ; preds = %64, %58
  %66 = load ptr, ptr %3, align 8
  store ptr %66, ptr %13, align 8
  %67 = load ptr, ptr %13, align 8
  %68 = icmp ne ptr %67, null
  br i1 %68, label %69, label %70

69:                                               ; preds = %65
  br label %70

70:                                               ; preds = %69, %65
  %71 = phi i1 [ false, %65 ], [ true, %69 ]
  call void @llvm.assume(i1 %71)
  %72 = load ptr, ptr %13, align 8
  %73 = getelementptr inbounds %struct._zend_class_constant, ptr %72, i32 0, i32 0
  %74 = getelementptr inbounds %struct._zval_struct, ptr %73, i32 0, i32 2
  %75 = load i32, ptr %74, align 4
  %76 = and i32 %75, 64
  %77 = icmp ne i32 %76, 0
  call void @llvm.assume(i1 %77)
  %78 = load ptr, ptr %13, align 8
  %79 = getelementptr inbounds %struct._zend_class_constant, ptr %78, i32 0, i32 0
  store ptr %79, ptr %7, align 8
  %80 = load ptr, ptr %7, align 8
  %81 = getelementptr inbounds %struct._zval_struct, ptr %80, i32 0, i32 1
  %82 = load i8, ptr %81, align 8
  %83 = zext i8 %82 to i32
  %84 = icmp eq i32 %83, 11
  br i1 %84, label %85, label %95

85:                                               ; preds = %70
  %86 = load ptr, ptr %13, align 8
  %87 = getelementptr inbounds %struct._zend_class_constant, ptr %86, i32 0, i32 0
  %88 = load ptr, ptr %13, align 8
  %89 = getelementptr inbounds %struct._zend_class_constant, ptr %88, i32 0, i32 3
  %90 = load ptr, ptr %89, align 8
  %91 = call i32 @zval_update_constant_ex(ptr noundef %87, ptr noundef %90)
  %92 = icmp eq i32 %91, -1
  br i1 %92, label %93, label %94

93:                                               ; preds = %85
  unreachable

94:                                               ; preds = %85
  br label %95

95:                                               ; preds = %94, %70
  %96 = load ptr, ptr %13, align 8
  %97 = getelementptr inbounds %struct._zend_class_constant, ptr %96, i32 0, i32 0
  %98 = getelementptr inbounds %struct._zval_struct, ptr %97, i32 0, i32 0
  %99 = load ptr, ptr %98, align 8
  ret ptr %99
}