; Function Attrs: nounwind uwtable
define ptr @zend_enum_get_case(ptr noundef %0, ptr noundef %1) local_unnamed_addr #0 {
  %3 = getelementptr inbounds i8, ptr %0, i64 28
  %4 = load i32, ptr %3, align 4
  %5 = and i32 %4, 16777216
  %.not = icmp eq i32 %5, 0
  br i1 %.not, label %19, label %6

6:                                                ; preds = %2
  %7 = getelementptr inbounds i8, ptr %0, i64 232
  %8 = load ptr, ptr %7, align 8
  %.not29 = icmp eq ptr %8, null
  br i1 %.not29, label %19, label %9

9:                                                ; preds = %6
  %10 = load ptr, ptr getelementptr inbounds (%struct._zend_compiler_globals, ptr @compiler_globals, i64 0, i32 37), align 8
  %11 = ptrtoint ptr %8 to i64
  %12 = getelementptr inbounds i8, ptr %10, i64 %11
  %13 = load ptr, ptr %12, align 8
  %.not30 = icmp eq ptr %13, null
  br i1 %.not30, label %17, label %14

14:                                               ; preds = %9
  %15 = getelementptr inbounds i8, ptr %13, i64 8
  %16 = load ptr, ptr %15, align 8
  %.not31 = icmp eq ptr %16, null
  br i1 %.not31, label %17, label %21

17:                                               ; preds = %14, %9
  %18 = tail call ptr @zend_separate_class_constants_table(ptr noundef nonnull %0) #12
  br label %21

19:                                               ; preds = %6, %2
  %20 = getelementptr inbounds i8, ptr %0, i64 176
  br label %21

21:                                               ; preds = %14, %19, %17
  %.024 = phi ptr [ %18, %17 ], [ %20, %19 ], [ %16, %14 ]
  %22 = tail call ptr @zend_hash_find(ptr noundef %.024, ptr noundef %1) #12
  %.not32 = icmp eq ptr %22, null
  br i1 %.not32, label %25, label %23

23:                                               ; preds = %21
  %24 = load ptr, ptr %22, align 8, !nonnull !4, !noundef !4
  br label %25

25:                                               ; preds = %21, %23
  %.0 = phi ptr [ %24, %23 ], [ null, %21 ]
  %26 = icmp ne ptr %.0, null
  tail call void @llvm.assume(i1 %26)
  %27 = getelementptr inbounds i8, ptr %.0, i64 12
  %28 = load i32, ptr %27, align 4
  %29 = and i32 %28, 64
  %30 = icmp ne i32 %29, 0
  tail call void @llvm.assume(i1 %30)
  %31 = getelementptr inbounds i8, ptr %.0, i64 8
  %32 = load i8, ptr %31, align 8
  %33 = icmp eq i8 %32, 11
  br i1 %33, label %34, label %39

34:                                               ; preds = %25
  %35 = getelementptr inbounds i8, ptr %.0, i64 32
  %36 = load ptr, ptr %35, align 8
  %37 = tail call i32 @zval_update_constant_ex(ptr noundef nonnull %.0, ptr noundef %36) #12
  %38 = icmp ne i32 %37, -1
  tail call void @llvm.assume(i1 %38)
  br label %39

39:                                               ; preds = %34, %25
  %40 = load ptr, ptr %.0, align 8
  ret ptr %40
}